target datalayout = "e-m:e-p270:32:32-p271:32:32-p272:64:64-i64:64-i128:128-f80:128-n8:16:32:64-S128"
target triple = "x86_64-pc-linux-gnu"

%"class.std::shared_ptr" = type { %"class.std::__shared_ptr" }
%"class.std::__shared_ptr" = type { ptr, %"class.std::__shared_count" }
%"class.std::__shared_count" = type { ptr }
%"class.std::__cxx11::basic_string" = type { %"struct.std::__cxx11::basic_string<char>::_Alloc_hider", i64, %union.anon }
%"struct.std::__cxx11::basic_string<char>::_Alloc_hider" = type { ptr }
%union.anon = type { i64, [8 x i8] }

@_ZTIN10open_spiel4GameE = external constant ptr
@_ZTIN10open_spiel14NormalFormGameE = linkonce_odr constant { ptr, ptr, ptr } { ptr getelementptr inbounds (ptr, ptr @_ZTVN10__cxxabiv120__si_class_type_infoE, i64 2), ptr @_ZTSN10open_spiel14NormalFormGameE, ptr @_ZTIN10open_spiel11SimMoveGameE }, comdat, align 8
@.str.2 = private unnamed_addr constant [141 x i8] c"generated/home/dtcxzyw/WorkSpace/Projects/compilers/llvm-opt-benchmark/bench/openspiel/open_spiel/open_spiel/algorithms/matrix_game_utils.cc\00", align 1
@.str.3 = private unnamed_addr constant [2 x i8] c":\00", align 1
@.str.4 = private unnamed_addr constant [13 x i8] c" CHECK_TRUE(\00", align 1
@.str.5 = private unnamed_addr constant [15 x i8] c"nfg != nullptr\00", align 1
@.str.6 = private unnamed_addr constant [2 x i8] c")\00", align 1

; Function Attrs: mustprogress uwtable
define void @_ZN10open_spiel10algorithms12AsMatrixGameEPKNS_4GameE(ptr dead_on_unwind noalias writable sret(%"class.std::shared_ptr") align 8 %0, ptr noundef %1) #4 personality ptr @__gxx_personality_v0 {
  %3 = alloca ptr, align 8
  %4 = alloca ptr, align 8
  %5 = alloca ptr, align 8
  %6 = alloca %"class.std::__cxx11::basic_string", align 8
  %7 = alloca i32, align 4
  %8 = alloca ptr, align 8
  %9 = alloca i32, align 4
  store ptr %0, ptr %3, align 8
  store ptr %1, ptr %4, align 8
  %10 = load ptr, ptr %4, align 8
  %11 = icmp eq ptr %10, null
  br i1 %11, label %14, label %12

12:                                               ; preds = %2
  %13 = call ptr @__dynamic_cast(ptr %10, ptr @_ZTIN10open_spiel4GameE, ptr @_ZTIN10open_spiel14NormalFormGameE, i64 0) #3
  br label %15

14:                                               ; preds = %2
  br label %15

15:                                               ; preds = %14, %12
  %16 = phi ptr [ %13, %12 ], [ null, %14 ]
  store ptr %16, ptr %5, align 8
  br label %17

17:                                               ; preds = %15
  %18 = load ptr, ptr %5, align 8
  %19 = icmp ne ptr %18, null
  %20 = xor i1 %19, true
  br i1 %20, label %21, label %27

21:                                               ; preds = %17
  store i32 48, ptr %7, align 4
  call void @_ZN10open_spiel8internal11SpielStrCatIJRA141_KcRA2_S2_iRA13_S2_RA15_S2_S6_EEENSt7__cxx1112basic_stringIcSt11char_traitsIcESaIcEEEDpOT_(ptr dead_on_unwind writable sret(%"class.std::__cxx11::basic_string") align 8 %6, ptr noundef nonnull align 1 dereferenceable(141) @.str.2, ptr noundef nonnull align 1 dereferenceable(2) @.str.3, ptr noundef nonnull align 4 dereferenceable(4) %7, ptr noundef nonnull align 1 dereferenceable(13) @.str.4, ptr noundef nonnull align 1 dereferenceable(15) @.str.5, ptr noundef nonnull align 1 dereferenceable(2) @.str.6)
  invoke void @_ZN10open_spiel15SpielFatalErrorERKNSt7__cxx1112basic_stringIcSt11char_traitsIcESaIcEEE(ptr noundef nonnull align 8 dereferenceable(32) %6) #15
          to label %22 unwind label %23

22:                                               ; preds = %21
  unreachable

23:                                               ; preds = %21
  %24 = landingpad { ptr, i32 }
          cleanup
  %25 = extractvalue { ptr, i32 } %24, 0
  store ptr %25, ptr %8, align 8
  %26 = extractvalue { ptr, i32 } %24, 1
  store i32 %26, ptr %9, align 4
  call void @_ZNSt7__cxx1112basic_stringIcSt11char_traitsIcESaIcEED1Ev(ptr noundef nonnull align 8 dereferenceable(32) %6) #3
  br label %29

27:                                               ; preds = %17
  %28 = load ptr, ptr %5, align 8
  call void @_ZN10open_spiel10algorithms12AsMatrixGameEPKNS_14NormalFormGameE(ptr dead_on_unwind writable sret(%"class.std::shared_ptr") align 8 %0, ptr noundef %28)
  ret void

29:                                               ; preds = %23
  %30 = load ptr, ptr %8, align 8
  %31 = load i32, ptr %9, align 4
  %32 = insertvalue { ptr, i32 } poison, ptr %30, 0
  %33 = insertvalue { ptr, i32 } %32, i32 %31, 1
  resume { ptr, i32 } %33
}